
TWI.elf:     file format elf32-avr

Sections:
Idx Name          Size      VMA       LMA       File off  Algn
  0 .text         000006a8  00000000  00000000  00000094  2**1
                  CONTENTS, ALLOC, LOAD, READONLY, CODE
  1 .data         00000000  00802000  000006a8  0000073c  2**0
                  CONTENTS, ALLOC, LOAD, DATA
  2 .bss          00000018  00802000  00802000  0000073c  2**0
                  ALLOC
  3 .stab         00000714  00000000  00000000  0000073c  2**2
                  CONTENTS, READONLY, DEBUGGING
  4 .stabstr      00000097  00000000  00000000  00000e50  2**0
                  CONTENTS, READONLY, DEBUGGING
  5 .comment      0000002f  00000000  00000000  00000ee7  2**0
                  CONTENTS, READONLY
  6 .debug_aranges 00000288  00000000  00000000  00000f16  2**0
                  CONTENTS, READONLY, DEBUGGING
  7 .debug_info   00004403  00000000  00000000  0000119e  2**0
                  CONTENTS, READONLY, DEBUGGING
  8 .debug_abbrev 00000b9b  00000000  00000000  000055a1  2**0
                  CONTENTS, READONLY, DEBUGGING
  9 .debug_line   000014f2  00000000  00000000  0000613c  2**0
                  CONTENTS, READONLY, DEBUGGING
 10 .debug_frame  00000594  00000000  00000000  00007630  2**2
                  CONTENTS, READONLY, DEBUGGING
 11 .debug_str    000021df  00000000  00000000  00007bc4  2**0
                  CONTENTS, READONLY, DEBUGGING
 12 .debug_loc    000014f0  00000000  00000000  00009da3  2**0
                  CONTENTS, READONLY, DEBUGGING
 13 .debug_ranges 00000248  00000000  00000000  0000b293  2**0
                  CONTENTS, READONLY, DEBUGGING

Disassembly of section .text:

00000000 <__vectors>:
   0:	fd c0       	rjmp	.+506    	; 0x1fc <__ctors_end>
   2:	00 00       	nop
   4:	11 c1       	rjmp	.+546    	; 0x228 <__bad_interrupt>
   6:	00 00       	nop
   8:	0f c1       	rjmp	.+542    	; 0x228 <__bad_interrupt>
   a:	00 00       	nop
   c:	0d c1       	rjmp	.+538    	; 0x228 <__bad_interrupt>
   e:	00 00       	nop
  10:	0b c1       	rjmp	.+534    	; 0x228 <__bad_interrupt>
  12:	00 00       	nop
  14:	09 c1       	rjmp	.+530    	; 0x228 <__bad_interrupt>
  16:	00 00       	nop
  18:	07 c1       	rjmp	.+526    	; 0x228 <__bad_interrupt>
  1a:	00 00       	nop
  1c:	05 c1       	rjmp	.+522    	; 0x228 <__bad_interrupt>
  1e:	00 00       	nop
  20:	03 c1       	rjmp	.+518    	; 0x228 <__bad_interrupt>
  22:	00 00       	nop
  24:	01 c1       	rjmp	.+514    	; 0x228 <__bad_interrupt>
  26:	00 00       	nop
  28:	ff c0       	rjmp	.+510    	; 0x228 <__bad_interrupt>
  2a:	00 00       	nop
  2c:	fd c0       	rjmp	.+506    	; 0x228 <__bad_interrupt>
  2e:	00 00       	nop
  30:	fb c0       	rjmp	.+502    	; 0x228 <__bad_interrupt>
  32:	00 00       	nop
  34:	67 c2       	rjmp	.+1230   	; 0x504 <__vector_13>
  36:	00 00       	nop
  38:	f7 c0       	rjmp	.+494    	; 0x228 <__bad_interrupt>
  3a:	00 00       	nop
  3c:	f5 c0       	rjmp	.+490    	; 0x228 <__bad_interrupt>
  3e:	00 00       	nop
  40:	f3 c0       	rjmp	.+486    	; 0x228 <__bad_interrupt>
  42:	00 00       	nop
  44:	f1 c0       	rjmp	.+482    	; 0x228 <__bad_interrupt>
  46:	00 00       	nop
  48:	ef c0       	rjmp	.+478    	; 0x228 <__bad_interrupt>
  4a:	00 00       	nop
  4c:	ed c0       	rjmp	.+474    	; 0x228 <__bad_interrupt>
  4e:	00 00       	nop
  50:	eb c0       	rjmp	.+470    	; 0x228 <__bad_interrupt>
  52:	00 00       	nop
  54:	e9 c0       	rjmp	.+466    	; 0x228 <__bad_interrupt>
  56:	00 00       	nop
  58:	e7 c0       	rjmp	.+462    	; 0x228 <__bad_interrupt>
  5a:	00 00       	nop
  5c:	e5 c0       	rjmp	.+458    	; 0x228 <__bad_interrupt>
  5e:	00 00       	nop
  60:	e3 c0       	rjmp	.+454    	; 0x228 <__bad_interrupt>
  62:	00 00       	nop
  64:	e1 c0       	rjmp	.+450    	; 0x228 <__bad_interrupt>
  66:	00 00       	nop
  68:	df c0       	rjmp	.+446    	; 0x228 <__bad_interrupt>
  6a:	00 00       	nop
  6c:	dd c0       	rjmp	.+442    	; 0x228 <__bad_interrupt>
  6e:	00 00       	nop
  70:	db c0       	rjmp	.+438    	; 0x228 <__bad_interrupt>
  72:	00 00       	nop
  74:	d9 c0       	rjmp	.+434    	; 0x228 <__bad_interrupt>
  76:	00 00       	nop
  78:	d7 c0       	rjmp	.+430    	; 0x228 <__bad_interrupt>
  7a:	00 00       	nop
  7c:	d5 c0       	rjmp	.+426    	; 0x228 <__bad_interrupt>
  7e:	00 00       	nop
  80:	d3 c0       	rjmp	.+422    	; 0x228 <__bad_interrupt>
  82:	00 00       	nop
  84:	d1 c0       	rjmp	.+418    	; 0x228 <__bad_interrupt>
  86:	00 00       	nop
  88:	cf c0       	rjmp	.+414    	; 0x228 <__bad_interrupt>
  8a:	00 00       	nop
  8c:	cd c0       	rjmp	.+410    	; 0x228 <__bad_interrupt>
  8e:	00 00       	nop
  90:	cb c0       	rjmp	.+406    	; 0x228 <__bad_interrupt>
  92:	00 00       	nop
  94:	c9 c0       	rjmp	.+402    	; 0x228 <__bad_interrupt>
  96:	00 00       	nop
  98:	c7 c0       	rjmp	.+398    	; 0x228 <__bad_interrupt>
  9a:	00 00       	nop
  9c:	c5 c0       	rjmp	.+394    	; 0x228 <__bad_interrupt>
  9e:	00 00       	nop
  a0:	c3 c0       	rjmp	.+390    	; 0x228 <__bad_interrupt>
  a2:	00 00       	nop
  a4:	c1 c0       	rjmp	.+386    	; 0x228 <__bad_interrupt>
  a6:	00 00       	nop
  a8:	bf c0       	rjmp	.+382    	; 0x228 <__bad_interrupt>
  aa:	00 00       	nop
  ac:	bd c0       	rjmp	.+378    	; 0x228 <__bad_interrupt>
  ae:	00 00       	nop
  b0:	bb c0       	rjmp	.+374    	; 0x228 <__bad_interrupt>
  b2:	00 00       	nop
  b4:	b9 c0       	rjmp	.+370    	; 0x228 <__bad_interrupt>
  b6:	00 00       	nop
  b8:	b7 c0       	rjmp	.+366    	; 0x228 <__bad_interrupt>
  ba:	00 00       	nop
  bc:	b5 c0       	rjmp	.+362    	; 0x228 <__bad_interrupt>
  be:	00 00       	nop
  c0:	b3 c0       	rjmp	.+358    	; 0x228 <__bad_interrupt>
  c2:	00 00       	nop
  c4:	b1 c0       	rjmp	.+354    	; 0x228 <__bad_interrupt>
  c6:	00 00       	nop
  c8:	af c0       	rjmp	.+350    	; 0x228 <__bad_interrupt>
  ca:	00 00       	nop
  cc:	ad c0       	rjmp	.+346    	; 0x228 <__bad_interrupt>
  ce:	00 00       	nop
  d0:	ab c0       	rjmp	.+342    	; 0x228 <__bad_interrupt>
  d2:	00 00       	nop
  d4:	a9 c0       	rjmp	.+338    	; 0x228 <__bad_interrupt>
  d6:	00 00       	nop
  d8:	a7 c0       	rjmp	.+334    	; 0x228 <__bad_interrupt>
  da:	00 00       	nop
  dc:	a5 c0       	rjmp	.+330    	; 0x228 <__bad_interrupt>
  de:	00 00       	nop
  e0:	a3 c0       	rjmp	.+326    	; 0x228 <__bad_interrupt>
  e2:	00 00       	nop
  e4:	a1 c0       	rjmp	.+322    	; 0x228 <__bad_interrupt>
  e6:	00 00       	nop
  e8:	9f c0       	rjmp	.+318    	; 0x228 <__bad_interrupt>
  ea:	00 00       	nop
  ec:	9d c0       	rjmp	.+314    	; 0x228 <__bad_interrupt>
  ee:	00 00       	nop
  f0:	9b c0       	rjmp	.+310    	; 0x228 <__bad_interrupt>
  f2:	00 00       	nop
  f4:	99 c0       	rjmp	.+306    	; 0x228 <__bad_interrupt>
  f6:	00 00       	nop
  f8:	97 c0       	rjmp	.+302    	; 0x228 <__bad_interrupt>
  fa:	00 00       	nop
  fc:	95 c0       	rjmp	.+298    	; 0x228 <__bad_interrupt>
  fe:	00 00       	nop
 100:	93 c0       	rjmp	.+294    	; 0x228 <__bad_interrupt>
 102:	00 00       	nop
 104:	91 c0       	rjmp	.+290    	; 0x228 <__bad_interrupt>
 106:	00 00       	nop
 108:	8f c0       	rjmp	.+286    	; 0x228 <__bad_interrupt>
 10a:	00 00       	nop
 10c:	8d c0       	rjmp	.+282    	; 0x228 <__bad_interrupt>
 10e:	00 00       	nop
 110:	8b c0       	rjmp	.+278    	; 0x228 <__bad_interrupt>
 112:	00 00       	nop
 114:	89 c0       	rjmp	.+274    	; 0x228 <__bad_interrupt>
 116:	00 00       	nop
 118:	87 c0       	rjmp	.+270    	; 0x228 <__bad_interrupt>
 11a:	00 00       	nop
 11c:	0f c1       	rjmp	.+542    	; 0x33c <__vector_71>
 11e:	00 00       	nop
 120:	83 c0       	rjmp	.+262    	; 0x228 <__bad_interrupt>
 122:	00 00       	nop
 124:	81 c0       	rjmp	.+258    	; 0x228 <__bad_interrupt>
 126:	00 00       	nop
 128:	7f c0       	rjmp	.+254    	; 0x228 <__bad_interrupt>
 12a:	00 00       	nop
 12c:	7d c0       	rjmp	.+250    	; 0x228 <__bad_interrupt>
 12e:	00 00       	nop
 130:	7b c0       	rjmp	.+246    	; 0x228 <__bad_interrupt>
 132:	00 00       	nop
 134:	79 c0       	rjmp	.+242    	; 0x228 <__bad_interrupt>
 136:	00 00       	nop
 138:	77 c0       	rjmp	.+238    	; 0x228 <__bad_interrupt>
 13a:	00 00       	nop
 13c:	75 c0       	rjmp	.+234    	; 0x228 <__bad_interrupt>
 13e:	00 00       	nop
 140:	73 c0       	rjmp	.+230    	; 0x228 <__bad_interrupt>
 142:	00 00       	nop
 144:	71 c0       	rjmp	.+226    	; 0x228 <__bad_interrupt>
 146:	00 00       	nop
 148:	6f c0       	rjmp	.+222    	; 0x228 <__bad_interrupt>
 14a:	00 00       	nop
 14c:	6d c0       	rjmp	.+218    	; 0x228 <__bad_interrupt>
 14e:	00 00       	nop
 150:	6b c0       	rjmp	.+214    	; 0x228 <__bad_interrupt>
 152:	00 00       	nop
 154:	69 c0       	rjmp	.+210    	; 0x228 <__bad_interrupt>
 156:	00 00       	nop
 158:	67 c0       	rjmp	.+206    	; 0x228 <__bad_interrupt>
 15a:	00 00       	nop
 15c:	65 c0       	rjmp	.+202    	; 0x228 <__bad_interrupt>
 15e:	00 00       	nop
 160:	63 c0       	rjmp	.+198    	; 0x228 <__bad_interrupt>
 162:	00 00       	nop
 164:	61 c0       	rjmp	.+194    	; 0x228 <__bad_interrupt>
 166:	00 00       	nop
 168:	5f c0       	rjmp	.+190    	; 0x228 <__bad_interrupt>
 16a:	00 00       	nop
 16c:	5d c0       	rjmp	.+186    	; 0x228 <__bad_interrupt>
 16e:	00 00       	nop
 170:	5b c0       	rjmp	.+182    	; 0x228 <__bad_interrupt>
 172:	00 00       	nop
 174:	59 c0       	rjmp	.+178    	; 0x228 <__bad_interrupt>
 176:	00 00       	nop
 178:	57 c0       	rjmp	.+174    	; 0x228 <__bad_interrupt>
 17a:	00 00       	nop
 17c:	55 c0       	rjmp	.+170    	; 0x228 <__bad_interrupt>
 17e:	00 00       	nop
 180:	53 c0       	rjmp	.+166    	; 0x228 <__bad_interrupt>
 182:	00 00       	nop
 184:	51 c0       	rjmp	.+162    	; 0x228 <__bad_interrupt>
 186:	00 00       	nop
 188:	4f c0       	rjmp	.+158    	; 0x228 <__bad_interrupt>
 18a:	00 00       	nop
 18c:	4d c0       	rjmp	.+154    	; 0x228 <__bad_interrupt>
 18e:	00 00       	nop
 190:	4b c0       	rjmp	.+150    	; 0x228 <__bad_interrupt>
 192:	00 00       	nop
 194:	49 c0       	rjmp	.+146    	; 0x228 <__bad_interrupt>
 196:	00 00       	nop
 198:	47 c0       	rjmp	.+142    	; 0x228 <__bad_interrupt>
 19a:	00 00       	nop
 19c:	45 c0       	rjmp	.+138    	; 0x228 <__bad_interrupt>
 19e:	00 00       	nop
 1a0:	43 c0       	rjmp	.+134    	; 0x228 <__bad_interrupt>
 1a2:	00 00       	nop
 1a4:	41 c0       	rjmp	.+130    	; 0x228 <__bad_interrupt>
 1a6:	00 00       	nop
 1a8:	3f c0       	rjmp	.+126    	; 0x228 <__bad_interrupt>
 1aa:	00 00       	nop
 1ac:	3d c0       	rjmp	.+122    	; 0x228 <__bad_interrupt>
 1ae:	00 00       	nop
 1b0:	3b c0       	rjmp	.+118    	; 0x228 <__bad_interrupt>
 1b2:	00 00       	nop
 1b4:	39 c0       	rjmp	.+114    	; 0x228 <__bad_interrupt>
 1b6:	00 00       	nop
 1b8:	37 c0       	rjmp	.+110    	; 0x228 <__bad_interrupt>
 1ba:	00 00       	nop
 1bc:	35 c0       	rjmp	.+106    	; 0x228 <__bad_interrupt>
 1be:	00 00       	nop
 1c0:	33 c0       	rjmp	.+102    	; 0x228 <__bad_interrupt>
 1c2:	00 00       	nop
 1c4:	31 c0       	rjmp	.+98     	; 0x228 <__bad_interrupt>
 1c6:	00 00       	nop
 1c8:	2f c0       	rjmp	.+94     	; 0x228 <__bad_interrupt>
 1ca:	00 00       	nop
 1cc:	2d c0       	rjmp	.+90     	; 0x228 <__bad_interrupt>
 1ce:	00 00       	nop
 1d0:	2b c0       	rjmp	.+86     	; 0x228 <__bad_interrupt>
 1d2:	00 00       	nop
 1d4:	29 c0       	rjmp	.+82     	; 0x228 <__bad_interrupt>
 1d6:	00 00       	nop
 1d8:	27 c0       	rjmp	.+78     	; 0x228 <__bad_interrupt>
 1da:	00 00       	nop
 1dc:	25 c0       	rjmp	.+74     	; 0x228 <__bad_interrupt>
 1de:	00 00       	nop
 1e0:	23 c0       	rjmp	.+70     	; 0x228 <__bad_interrupt>
 1e2:	00 00       	nop
 1e4:	21 c0       	rjmp	.+66     	; 0x228 <__bad_interrupt>
 1e6:	00 00       	nop
 1e8:	1f c0       	rjmp	.+62     	; 0x228 <__bad_interrupt>
 1ea:	00 00       	nop
 1ec:	1d c0       	rjmp	.+58     	; 0x228 <__bad_interrupt>
 1ee:	00 00       	nop
 1f0:	1b c0       	rjmp	.+54     	; 0x228 <__bad_interrupt>
 1f2:	00 00       	nop
 1f4:	19 c0       	rjmp	.+50     	; 0x228 <__bad_interrupt>
 1f6:	00 00       	nop
 1f8:	17 c0       	rjmp	.+46     	; 0x228 <__bad_interrupt>
	...

000001fc <__ctors_end>:
 1fc:	11 24       	eor	r1, r1
 1fe:	1f be       	out	0x3f, r1	; 63
 200:	cf ef       	ldi	r28, 0xFF	; 255
 202:	df e3       	ldi	r29, 0x3F	; 63
 204:	de bf       	out	0x3e, r29	; 62
 206:	cd bf       	out	0x3d, r28	; 61
 208:	00 e0       	ldi	r16, 0x00	; 0
 20a:	0c bf       	out	0x3c, r16	; 60
 20c:	18 be       	out	0x38, r1	; 56
 20e:	19 be       	out	0x39, r1	; 57
 210:	1a be       	out	0x3a, r1	; 58
 212:	1b be       	out	0x3b, r1	; 59

00000214 <__do_clear_bss>:
 214:	20 e2       	ldi	r18, 0x20	; 32
 216:	a0 e0       	ldi	r26, 0x00	; 0
 218:	b0 e2       	ldi	r27, 0x20	; 32
 21a:	01 c0       	rjmp	.+2      	; 0x21e <.do_clear_bss_start>

0000021c <.do_clear_bss_loop>:
 21c:	1d 92       	st	X+, r1

0000021e <.do_clear_bss_start>:
 21e:	a8 31       	cpi	r26, 0x18	; 24
 220:	b2 07       	cpc	r27, r18
 222:	e1 f7       	brne	.-8      	; 0x21c <.do_clear_bss_loop>
 224:	b2 d0       	rcall	.+356    	; 0x38a <main>
 226:	3e c2       	rjmp	.+1148   	; 0x6a4 <_exit>

00000228 <__bad_interrupt>:
 228:	eb ce       	rjmp	.-554    	; 0x0 <__vectors>

0000022a <ReadCalibrationByte>:
 22a:	aa ec       	ldi	r26, 0xCA	; 202
 22c:	b1 e0       	ldi	r27, 0x01	; 1
 22e:	92 e0       	ldi	r25, 0x02	; 2
 230:	9c 93       	st	X, r25
 232:	e8 2f       	mov	r30, r24
 234:	f0 e0       	ldi	r31, 0x00	; 0
 236:	84 91       	lpm	r24, Z
 238:	1c 92       	st	X, r1
 23a:	08 95       	ret

0000023c <adc_init>:
 23c:	cf 93       	push	r28
 23e:	df 93       	push	r29
 240:	e0 e7       	ldi	r30, 0x70	; 112
 242:	f0 e0       	ldi	r31, 0x00	; 0
 244:	81 81       	ldd	r24, Z+1	; 0x01
 246:	8d 7f       	andi	r24, 0xFD	; 253
 248:	81 83       	std	Z+1, r24	; 0x01
 24a:	80 e2       	ldi	r24, 0x20	; 32
 24c:	ee df       	rcall	.-36     	; 0x22a <ReadCalibrationByte>
 24e:	c0 e0       	ldi	r28, 0x00	; 0
 250:	d2 e0       	ldi	r29, 0x02	; 2
 252:	8c 87       	std	Y+12, r24	; 0x0c
 254:	81 e2       	ldi	r24, 0x21	; 33
 256:	e9 df       	rcall	.-46     	; 0x22a <ReadCalibrationByte>
 258:	8d 87       	std	Y+13, r24	; 0x0d
 25a:	80 e2       	ldi	r24, 0x20	; 32
 25c:	e6 df       	rcall	.-52     	; 0x22a <ReadCalibrationByte>
 25e:	8c 87       	std	Y+12, r24	; 0x0c
 260:	81 e2       	ldi	r24, 0x21	; 33
 262:	e3 df       	rcall	.-58     	; 0x22a <ReadCalibrationByte>
 264:	8d 87       	std	Y+13, r24	; 0x0d
 266:	81 e0       	ldi	r24, 0x01	; 1
 268:	88 a3       	std	Y+32, r24	; 0x20
 26a:	98 e0       	ldi	r25, 0x08	; 8
 26c:	99 a3       	std	Y+33, r25	; 0x21
 26e:	90 e1       	ldi	r25, 0x10	; 16
 270:	98 83       	st	Y, r25
 272:	24 e0       	ldi	r18, 0x04	; 4
 274:	2c 83       	std	Y+4, r18	; 0x04
 276:	9a 83       	std	Y+2, r25	; 0x02
 278:	1b 82       	std	Y+3, r1	; 0x03
 27a:	8e 83       	std	Y+6, r24	; 0x06
 27c:	93 e0       	ldi	r25, 0x03	; 3
 27e:	9a a3       	std	Y+34, r25	; 0x22
 280:	88 83       	st	Y, r24
 282:	df 91       	pop	r29
 284:	cf 91       	pop	r28
 286:	08 95       	ret

00000288 <TC0_ConfigClockSource>:
 288:	fc 01       	movw	r30, r24
 28a:	20 81       	ld	r18, Z
 28c:	20 7f       	andi	r18, 0xF0	; 240
 28e:	62 2b       	or	r22, r18
 290:	60 83       	st	Z, r22
 292:	08 95       	ret

00000294 <TC0_ConfigWGM>:
 294:	fc 01       	movw	r30, r24
 296:	21 81       	ldd	r18, Z+1	; 0x01
 298:	28 7f       	andi	r18, 0xF8	; 248
 29a:	62 2b       	or	r22, r18
 29c:	61 83       	std	Z+1, r22	; 0x01
 29e:	08 95       	ret

000002a0 <TC0_EnableCCChannels>:
 2a0:	fc 01       	movw	r30, r24
 2a2:	21 81       	ldd	r18, Z+1	; 0x01
 2a4:	60 7f       	andi	r22, 0xF0	; 240
 2a6:	62 2b       	or	r22, r18
 2a8:	61 83       	std	Z+1, r22	; 0x01
 2aa:	08 95       	ret

000002ac <send_high>:
	int i;
	for (i=0; 8 > i ;++i) {
		if (bits & (mask << i)) send_high();
		else send_low();
	}
}
 2ac:	82 e4       	ldi	r24, 0x42	; 66
 2ae:	90 e0       	ldi	r25, 0x00	; 0
 2b0:	e0 e0       	ldi	r30, 0x00	; 0
 2b2:	f9 e0       	ldi	r31, 0x09	; 9
 2b4:	80 af       	std	Z+56, r24	; 0x38
 2b6:	91 af       	std	Z+57, r25	; 0x39
 2b8:	8c e2       	ldi	r24, 0x2C	; 44
 2ba:	91 e0       	ldi	r25, 0x01	; 1
 2bc:	31 e0       	ldi	r19, 0x01	; 1
 2be:	34 87       	std	Z+12, r19	; 0x0c
 2c0:	24 85       	ldd	r18, Z+12	; 0x0c
 2c2:	20 ff       	sbrs	r18, 0
 2c4:	fd cf       	rjmp	.-6      	; 0x2c0 <send_high+0x14>
 2c6:	01 97       	sbiw	r24, 0x01	; 1
 2c8:	d1 f7       	brne	.-12     	; 0x2be <send_high+0x12>
 2ca:	08 95       	ret

000002cc <send_low>:
 2cc:	e0 e0       	ldi	r30, 0x00	; 0
 2ce:	f9 e0       	ldi	r31, 0x09	; 9
 2d0:	10 ae       	std	Z+56, r1	; 0x38
 2d2:	11 ae       	std	Z+57, r1	; 0x39
 2d4:	8c e2       	ldi	r24, 0x2C	; 44
 2d6:	91 e0       	ldi	r25, 0x01	; 1
 2d8:	31 e0       	ldi	r19, 0x01	; 1
 2da:	34 87       	std	Z+12, r19	; 0x0c
 2dc:	24 85       	ldd	r18, Z+12	; 0x0c
 2de:	20 ff       	sbrs	r18, 0
 2e0:	fd cf       	rjmp	.-6      	; 0x2dc <send_low+0x10>
 2e2:	01 97       	sbiw	r24, 0x01	; 1
 2e4:	d1 f7       	brne	.-12     	; 0x2da <send_low+0xe>
 2e6:	08 95       	ret

000002e8 <send_high_manchester>:


void send_high_manchester ( ) {
	send_low();
 2e8:	f1 df       	rcall	.-30     	; 0x2cc <send_low>
	send_high();
 2ea:	e0 cf       	rjmp	.-64     	; 0x2ac <send_high>

000002ec <send_low_manchester>:
}


void send_low_manchester ( ) {
	send_high();
 2ec:	df df       	rcall	.-66     	; 0x2ac <send_high>
	send_low();
 2ee:	ee cf       	rjmp	.-36     	; 0x2cc <send_low>

000002f0 <send_byte_manchester>:
}


void send_byte_manchester ( const unsigned char bits ) {
 2f0:	ef 92       	push	r14
 2f2:	ff 92       	push	r15
 2f4:	0f 93       	push	r16
 2f6:	1f 93       	push	r17
 2f8:	cf 93       	push	r28
 2fa:	df 93       	push	r29
	unsigned char mask = 0x01;
	int i;
	for (i=0; 8 > i ;++i) {
 2fc:	c0 e0       	ldi	r28, 0x00	; 0
 2fe:	d0 e0       	ldi	r29, 0x00	; 0
		if (bits & (mask << i)) send_high_manchester();
 300:	ee 24       	eor	r14, r14
 302:	e3 94       	inc	r14
 304:	f1 2c       	mov	r15, r1
 306:	08 2f       	mov	r16, r24
 308:	10 e0       	ldi	r17, 0x00	; 0
 30a:	97 01       	movw	r18, r14
 30c:	0c 2e       	mov	r0, r28
 30e:	02 c0       	rjmp	.+4      	; 0x314 <send_byte_manchester+0x24>
 310:	22 0f       	add	r18, r18
 312:	33 1f       	adc	r19, r19
 314:	0a 94       	dec	r0
 316:	e2 f7       	brpl	.-8      	; 0x310 <send_byte_manchester+0x20>
 318:	20 23       	and	r18, r16
 31a:	31 23       	and	r19, r17
 31c:	23 2b       	or	r18, r19
 31e:	11 f0       	breq	.+4      	; 0x324 <send_byte_manchester+0x34>
 320:	e3 df       	rcall	.-58     	; 0x2e8 <send_high_manchester>
 322:	01 c0       	rjmp	.+2      	; 0x326 <send_byte_manchester+0x36>
		else send_low_manchester();
 324:	e3 df       	rcall	.-58     	; 0x2ec <send_low_manchester>


void send_byte_manchester ( const unsigned char bits ) {
	unsigned char mask = 0x01;
	int i;
	for (i=0; 8 > i ;++i) {
 326:	21 96       	adiw	r28, 0x01	; 1
 328:	c8 30       	cpi	r28, 0x08	; 8
 32a:	d1 05       	cpc	r29, r1
 32c:	71 f7       	brne	.-36     	; 0x30a <send_byte_manchester+0x1a>
		if (bits & (mask << i)) send_high_manchester();
		else send_low_manchester();
	}
}
 32e:	df 91       	pop	r29
 330:	cf 91       	pop	r28
 332:	1f 91       	pop	r17
 334:	0f 91       	pop	r16
 336:	ff 90       	pop	r15
 338:	ef 90       	pop	r14
 33a:	08 95       	ret

0000033c <__vector_71>:




ISR(ADCA_CH0_vect) {
 33c:	1f 92       	push	r1
 33e:	0f 92       	push	r0
 340:	0f b6       	in	r0, 0x3f	; 63
 342:	0f 92       	push	r0
 344:	11 24       	eor	r1, r1
 346:	08 b6       	in	r0, 0x38	; 56
 348:	0f 92       	push	r0
 34a:	18 be       	out	0x38, r1	; 56
 34c:	0b b6       	in	r0, 0x3b	; 59
 34e:	0f 92       	push	r0
 350:	1b be       	out	0x3b, r1	; 59
 352:	8f 93       	push	r24
 354:	9f 93       	push	r25
 356:	ef 93       	push	r30
 358:	ff 93       	push	r31

	adc_result = ADCA.CH0.RES;
 35a:	e0 e0       	ldi	r30, 0x00	; 0
 35c:	f2 e0       	ldi	r31, 0x02	; 2
 35e:	84 a1       	ldd	r24, Z+36	; 0x24
 360:	95 a1       	ldd	r25, Z+37	; 0x25
 362:	80 93 01 20 	sts	0x2001, r24
 366:	90 93 02 20 	sts	0x2002, r25
	result_flag = 1;
 36a:	81 e0       	ldi	r24, 0x01	; 1
 36c:	80 93 00 20 	sts	0x2000, r24

	// Interrupt flag is cleared upon return from ISR
}
 370:	ff 91       	pop	r31
 372:	ef 91       	pop	r30
 374:	9f 91       	pop	r25
 376:	8f 91       	pop	r24
 378:	0f 90       	pop	r0
 37a:	0b be       	out	0x3b, r0	; 59
 37c:	0f 90       	pop	r0
 37e:	08 be       	out	0x38, r0	; 56
 380:	0f 90       	pop	r0
 382:	0f be       	out	0x3f, r0	; 63
 384:	0f 90       	pop	r0
 386:	1f 90       	pop	r1
 388:	18 95       	reti

0000038a <main>:


	/* Comment out the 3 lines below if you want to use
	   your own pull-up resistors (I recommend using 4.7k).
	*/
	PORTCFG.MPCMASK = 0x03;                                     // Configure several PINxCTRL registers.
 38a:	83 e0       	ldi	r24, 0x03	; 3
 38c:	80 93 b0 00 	sts	0x00B0, r24
	PORTC.PIN0CTRL =
		(PORTC.PIN0CTRL & ~PORT_OPC_gm) | PORT_OPC_PULLUP_gc;   // Use the internal pull-up resistors on PORTC's TWI Ports.
 390:	e0 e4       	ldi	r30, 0x40	; 64
 392:	f6 e0       	ldi	r31, 0x06	; 6
 394:	80 89       	ldd	r24, Z+16	; 0x10

	/* Comment out the 3 lines below if you want to use
	   your own pull-up resistors (I recommend using 4.7k).
	*/
	PORTCFG.MPCMASK = 0x03;                                     // Configure several PINxCTRL registers.
	PORTC.PIN0CTRL =
 396:	87 7c       	andi	r24, 0xC7	; 199
 398:	88 61       	ori	r24, 0x18	; 24
 39a:	80 8b       	std	Z+16, r24	; 0x10
		(PORTC.PIN0CTRL & ~PORT_OPC_gm) | PORT_OPC_PULLUP_gc;   // Use the internal pull-up resistors on PORTC's TWI Ports.

	TWI_MasterInit(
 39c:	25 e0       	ldi	r18, 0x05	; 5
 39e:	40 e4       	ldi	r20, 0x40	; 64
 3a0:	60 e8       	ldi	r22, 0x80	; 128
 3a2:	74 e0       	ldi	r23, 0x04	; 4
 3a4:	83 e0       	ldi	r24, 0x03	; 3
 3a6:	90 e2       	ldi	r25, 0x20	; 32
 3a8:	e1 d0       	rcall	.+450    	; 0x56c <TWI_MasterInit>
		TWI_MASTER_INTLVL_LO_gc,
		TWI_BAUDSETTING
	);

	//PMIC.CTRL |= PMIC_LOLVLEN_bm;                               // Enable LO interrupt level.
	PMIC.CTRL = PMIC_HILVLEN_bm | PMIC_MEDLVLEN_bm | PMIC_LOLVLEN_bm; //0x07
 3aa:	87 e0       	ldi	r24, 0x07	; 7
 3ac:	e0 ea       	ldi	r30, 0xA0	; 160
 3ae:	f0 e0       	ldi	r31, 0x00	; 0
 3b0:	82 83       	std	Z+2, r24	; 0x02
	sei();                                                      // Enable interrupts.
 3b2:	78 94       	sei

	PORTD.DIR = 0x01;                                           // Enable output on PortD0
 3b4:	81 e0       	ldi	r24, 0x01	; 1
 3b6:	80 93 60 06 	sts	0x0660, r24

	TC0_ConfigWGM(&TCD0,TC_WGMODE_SS_gc);                       // Configure single slope mode.
 3ba:	63 e0       	ldi	r22, 0x03	; 3
 3bc:	80 e0       	ldi	r24, 0x00	; 0
 3be:	99 e0       	ldi	r25, 0x09	; 9
 3c0:	69 df       	rcall	.-302    	; 0x294 <TC0_ConfigWGM>
	TC0_EnableCCChannels(&TCD0,TC0_CCAEN_bm);                   // Enable compare channel A.
 3c2:	60 e1       	ldi	r22, 0x10	; 16
 3c4:	80 e0       	ldi	r24, 0x00	; 0
 3c6:	99 e0       	ldi	r25, 0x09	; 9
 3c8:	6b df       	rcall	.-298    	; 0x2a0 <TC0_EnableCCChannels>
	TC0_ConfigClockSource(&TCD0,TC_CLKSEL_DIV1_gc);             // Start the timer by setting a clock source.
 3ca:	61 e0       	ldi	r22, 0x01	; 1
 3cc:	80 e0       	ldi	r24, 0x00	; 0
 3ce:	99 e0       	ldi	r25, 0x09	; 9
 3d0:	5b df       	rcall	.-330    	; 0x288 <TC0_ConfigClockSource>

	TC_SetPeriod(&TCD0,TIMER_PERIOD);
 3d2:	e0 e0       	ldi	r30, 0x00	; 0
 3d4:	f9 e0       	ldi	r31, 0x09	; 9
 3d6:	85 e8       	ldi	r24, 0x85	; 133
 3d8:	90 e0       	ldi	r25, 0x00	; 0
 3da:	86 a3       	std	Z+38, r24	; 0x26
 3dc:	97 a3       	std	Z+39, r25	; 0x27
	TC_SetCompareA(&TCD0,TIMER_PERIOD/2);
 3de:	82 e4       	ldi	r24, 0x42	; 66
 3e0:	90 e0       	ldi	r25, 0x00	; 0
 3e2:	80 af       	std	Z+56, r24	; 0x38
 3e4:	91 af       	std	Z+57, r25	; 0x39
	
	/* **************************************
	 * DEBUG: Known packet values to confirm
	 *        communication is working.
	 */
	twiMaster.readData[0] = 0xDE;
 3e6:	8e ed       	ldi	r24, 0xDE	; 222
 3e8:	80 93 0e 20 	sts	0x200E, r24
	twiMaster.readData[1] = 0xAD;
 3ec:	8d ea       	ldi	r24, 0xAD	; 173
 3ee:	80 93 0f 20 	sts	0x200F, r24
	twiMaster.readData[2] = 0xBE;
 3f2:	8e eb       	ldi	r24, 0xBE	; 190
 3f4:	80 93 10 20 	sts	0x2010, r24
	twiMaster.readData[3] = 0xEF;
 3f8:	8f ee       	ldi	r24, 0xEF	; 239
 3fa:	80 93 11 20 	sts	0x2011, r24
	
	int i;
	int checkSum = 0;

	// Initialize ADC
	adc_init();
 3fe:	1e df       	rcall	.-452    	; 0x23c <adc_init>
	PORTB_DIR = 0xFF;
 400:	8f ef       	ldi	r24, 0xFF	; 255
 402:	80 93 20 06 	sts	0x0620, r24
	PORTA_DIR = 0x00;
 406:	10 92 00 06 	sts	0x0600, r1
									// TALK with Vincent to determine if it is necessary
	uint16_t temp_result = 0x0000;
	uint8_t over_sample_num = 0x00;
	int test = 0;

	int silence_count = 0;
 40a:	e1 2c       	mov	r14, r1
 40c:	f1 2c       	mov	r15, r1
	PORTA_DIR = 0x00;

	//uint16_t pot_val = 0x0000;	// Commented out because it's not being used
									// TALK with Vincent to determine if it is necessary
	uint16_t temp_result = 0x0000;
	uint8_t over_sample_num = 0x00;
 40e:	71 2c       	mov	r7, r1
	int silence_count = 0;
	int output_on = 0;
	
	while(1){
		// Start ADC conversion
		ADCA.CH0.CTRL |= 0x80;
 410:	00 e0       	ldi	r16, 0x00	; 0
 412:	12 e0       	ldi	r17, 0x02	; 2
			/* **************************************
			 * DEBUG: writes a one to Port B0 when
			 *        the ADC value is past the high
			 *        threshold
			 */
			PORTB_OUT = 0x01;
 414:	0f 2e       	mov	r0, r31
 416:	f4 e2       	ldi	r31, 0x24	; 36
 418:	cf 2e       	mov	r12, r31
 41a:	f6 e0       	ldi	r31, 0x06	; 6
 41c:	df 2e       	mov	r13, r31
 41e:	f0 2d       	mov	r31, r0
 420:	66 24       	eor	r6, r6
 422:	63 94       	inc	r6
			checkSum = 0;
			for (i = 0; i < 4; i++) {
				unsigned char mask = 0x01;
				int j;
				for (j=0; j < 8 ;j++) {
					if (twiMaster.readData[i] & (mask << j))
 424:	aa 24       	eor	r10, r10
 426:	a3 94       	inc	r10
 428:	b1 2c       	mov	r11, r1
	int silence_count = 0;
	int output_on = 0;
	
	while(1){
		// Start ADC conversion
		ADCA.CH0.CTRL |= 0x80;
 42a:	f8 01       	movw	r30, r16
 42c:	80 a1       	ldd	r24, Z+32	; 0x20
 42e:	80 68       	ori	r24, 0x80	; 128
 430:	80 a3       	std	Z+32, r24	; 0x20
	
		if(result_flag) { // If a conversion has completed
 432:	80 91 00 20 	lds	r24, 0x2000
 436:	88 23       	and	r24, r24
 438:	49 f0       	breq	.+18     	; 0x44c <main+0xc2>

			// Disable interrupts while processing result
			cli();
 43a:	f8 94       	cli

			// Perform Sample Averaging
			over_sample_num++;
 43c:	73 94       	inc	r7
			temp_result += adc_result;
			if(over_sample_num == 30) {
 43e:	fe e1       	ldi	r31, 0x1E	; 30
 440:	7f 12       	cpse	r7, r31
 442:	01 c0       	rjmp	.+2      	; 0x446 <main+0xbc>
				//pot_val = temp_result/over_sample_num;
				temp_result = 0;
				over_sample_num = 0;
 444:	71 2c       	mov	r7, r1
			}
			result_flag = 0;
 446:	10 92 00 20 	sts	0x2000, r1

			// Re-enable interrupts
			sei();
 44a:	78 94       	sei
		}

		//test = adc_result - 0x0550; //600-700mV threshold
		test = adc_result - 0x0384; ///400mv
 44c:	80 91 01 20 	lds	r24, 0x2001
 450:	90 91 02 20 	lds	r25, 0x2002
 454:	84 58       	subi	r24, 0x84	; 132
 456:	93 40       	sbci	r25, 0x03	; 3
		//test = adc_result - 0x0960; //1.2v

		if (test > 0x0000){
 458:	18 16       	cp	r1, r24
 45a:	19 06       	cpc	r1, r25
 45c:	7c f0       	brlt	.+30     	; 0x47c <main+0xf2>
			silence_count = 0;
		}else{
			if (silence_count <= 5000) silence_count++;
 45e:	89 e8       	ldi	r24, 0x89	; 137
 460:	e8 16       	cp	r14, r24
 462:	83 e1       	ldi	r24, 0x13	; 19
 464:	f8 06       	cpc	r15, r24
 466:	1c f4       	brge	.+6      	; 0x46e <main+0xe4>
 468:	ef ef       	ldi	r30, 0xFF	; 255
 46a:	ee 1a       	sub	r14, r30
 46c:	fe 0a       	sbc	r15, r30
			output_on = 0;
		}else{
			output_on = 1;
		}

		if (output_on == 1){
 46e:	f1 ea       	ldi	r31, 0xA1	; 161
 470:	ef 16       	cp	r14, r31
 472:	ff e0       	ldi	r31, 0x0F	; 15
 474:	ff 06       	cpc	r15, r31
 476:	0c f0       	brlt	.+2      	; 0x47a <main+0xf0>
 478:	42 c0       	rjmp	.+132    	; 0x4fe <main+0x174>
 47a:	02 c0       	rjmp	.+4      	; 0x480 <main+0xf6>
		//test = adc_result - 0x0550; //600-700mV threshold
		test = adc_result - 0x0384; ///400mv
		//test = adc_result - 0x0960; //1.2v

		if (test > 0x0000){
			silence_count = 0;
 47c:	e1 2c       	mov	r14, r1
 47e:	f1 2c       	mov	r15, r1
			output_on = 1;
		}

		if (output_on == 1){
			// Disable interrupts to send packet
			cli();
 480:	f8 94       	cli
			/* **************************************
			 * DEBUG: writes a one to Port B0 when
			 *        the ADC value is past the high
			 *        threshold
			 */
			PORTB_OUT = 0x01;
 482:	f6 01       	movw	r30, r12
 484:	60 82       	st	Z, r6
			/***************************************/
			
			// Reset and then create packet checksum
			checkSum = 0;
			for (i = 0; i < 4; i++) {
 486:	60 e0       	ldi	r22, 0x00	; 0
 488:	70 e0       	ldi	r23, 0x00	; 0
			 */
			PORTB_OUT = 0x01;
			/***************************************/
			
			// Reset and then create packet checksum
			checkSum = 0;
 48a:	c0 e0       	ldi	r28, 0x00	; 0
 48c:	d0 e0       	ldi	r29, 0x00	; 0
 48e:	18 c0       	rjmp	.+48     	; 0x4c0 <main+0x136>
			for (i = 0; i < 4; i++) {
				unsigned char mask = 0x01;
				int j;
				for (j=0; j < 8 ;j++) {
					if (twiMaster.readData[i] & (mask << j))
 490:	80 81       	ld	r24, Z
 492:	a5 01       	movw	r20, r10
 494:	02 2e       	mov	r0, r18
 496:	02 c0       	rjmp	.+4      	; 0x49c <main+0x112>
 498:	44 0f       	add	r20, r20
 49a:	55 1f       	adc	r21, r21
 49c:	0a 94       	dec	r0
 49e:	e2 f7       	brpl	.-8      	; 0x498 <main+0x10e>
 4a0:	90 e0       	ldi	r25, 0x00	; 0
 4a2:	84 23       	and	r24, r20
 4a4:	95 23       	and	r25, r21
 4a6:	89 2b       	or	r24, r25
 4a8:	09 f0       	breq	.+2      	; 0x4ac <main+0x122>
						checkSum += 1;
 4aa:	21 96       	adiw	r28, 0x01	; 1
			// Reset and then create packet checksum
			checkSum = 0;
			for (i = 0; i < 4; i++) {
				unsigned char mask = 0x01;
				int j;
				for (j=0; j < 8 ;j++) {
 4ac:	2f 5f       	subi	r18, 0xFF	; 255
 4ae:	3f 4f       	sbci	r19, 0xFF	; 255
 4b0:	28 30       	cpi	r18, 0x08	; 8
 4b2:	31 05       	cpc	r19, r1
 4b4:	69 f7       	brne	.-38     	; 0x490 <main+0x106>
			PORTB_OUT = 0x01;
			/***************************************/
			
			// Reset and then create packet checksum
			checkSum = 0;
			for (i = 0; i < 4; i++) {
 4b6:	6f 5f       	subi	r22, 0xFF	; 255
 4b8:	7f 4f       	sbci	r23, 0xFF	; 255
 4ba:	64 30       	cpi	r22, 0x04	; 4
 4bc:	71 05       	cpc	r23, r1
 4be:	31 f0       	breq	.+12     	; 0x4cc <main+0x142>
		//test = adc_result - 0x0550; //600-700mV threshold
		test = adc_result - 0x0384; ///400mv
		//test = adc_result - 0x0960; //1.2v

		if (test > 0x0000){
			silence_count = 0;
 4c0:	20 e0       	ldi	r18, 0x00	; 0
 4c2:	30 e0       	ldi	r19, 0x00	; 0
			checkSum = 0;
			for (i = 0; i < 4; i++) {
				unsigned char mask = 0x01;
				int j;
				for (j=0; j < 8 ;j++) {
					if (twiMaster.readData[i] & (mask << j))
 4c4:	fb 01       	movw	r30, r22
 4c6:	e2 5f       	subi	r30, 0xF2	; 242
 4c8:	ff 4d       	sbci	r31, 0xDF	; 223
 4ca:	e2 cf       	rjmp	.-60     	; 0x490 <main+0x106>
				}
			}
			
			// Clear input stream to iPhone then send start edge
			for (i = 0; i < 3; i++) {
				send_low();
 4cc:	ff de       	rcall	.-514    	; 0x2cc <send_low>
 4ce:	fe de       	rcall	.-516    	; 0x2cc <send_low>
 4d0:	fd de       	rcall	.-518    	; 0x2cc <send_low>
			}
			send_high();
 4d2:	ec de       	rcall	.-552    	; 0x2ac <send_high>
			
			// Send data
			for (i=TWIM_READ_BUFFER_SIZE-1; 0 <= i ;--i) {          // Iterate through the results.
 4d4:	0f 2e       	mov	r0, r31
 4d6:	f3 e0       	ldi	r31, 0x03	; 3
 4d8:	8f 2e       	mov	r8, r31
 4da:	91 2c       	mov	r9, r1
 4dc:	f0 2d       	mov	r31, r0
				send_byte_manchester(twiMaster.readData[i]);      // Send the data using Manchester encoding.
 4de:	f4 01       	movw	r30, r8
 4e0:	ed 5f       	subi	r30, 0xFD	; 253
 4e2:	ff 4d       	sbci	r31, 0xDF	; 223
 4e4:	83 85       	ldd	r24, Z+11	; 0x0b
 4e6:	04 df       	rcall	.-504    	; 0x2f0 <send_byte_manchester>
				send_low();
			}
			send_high();
			
			// Send data
			for (i=TWIM_READ_BUFFER_SIZE-1; 0 <= i ;--i) {          // Iterate through the results.
 4e8:	f1 e0       	ldi	r31, 0x01	; 1
 4ea:	8f 1a       	sub	r8, r31
 4ec:	91 08       	sbc	r9, r1
 4ee:	b8 f7       	brcc	.-18     	; 0x4de <main+0x154>
				send_byte_manchester(twiMaster.readData[i]);      // Send the data using Manchester encoding.
			}
			
			// Send checksum
			send_byte_manchester(checkSum);
 4f0:	8c 2f       	mov	r24, r28
 4f2:	fe de       	rcall	.-516    	; 0x2f0 <send_byte_manchester>
			
			// Clear input buffer to iPhone with
			for (i = 0; i < 3; i++) {
				send_low();
 4f4:	eb de       	rcall	.-554    	; 0x2cc <send_low>
 4f6:	ea de       	rcall	.-556    	; 0x2cc <send_low>
 4f8:	e9 de       	rcall	.-558    	; 0x2cc <send_low>
			}
			
			// Enable interrupts to check ADC
			sei();
 4fa:	78 94       	sei
 4fc:	96 cf       	rjmp	.-212    	; 0x42a <main+0xa0>
			/* **************************************
			 * DEBUG: writes a zero to Port B0 when
			 *        the ADC value is below the high
			 *        threshold
			 */
			PORTB_OUT = 0x00;
 4fe:	f6 01       	movw	r30, r12
 500:	10 82       	st	Z, r1
 502:	93 cf       	rjmp	.-218    	; 0x42a <main+0xa0>

00000504 <__vector_13>:
	}
}


/*! TWIC Master Interrupt vector. */
ISR(TWIC_TWIM_vect){
 504:	1f 92       	push	r1
 506:	0f 92       	push	r0
 508:	0f b6       	in	r0, 0x3f	; 63
 50a:	0f 92       	push	r0
 50c:	11 24       	eor	r1, r1
 50e:	08 b6       	in	r0, 0x38	; 56
 510:	0f 92       	push	r0
 512:	18 be       	out	0x38, r1	; 56
 514:	09 b6       	in	r0, 0x39	; 57
 516:	0f 92       	push	r0
 518:	19 be       	out	0x39, r1	; 57
 51a:	0b b6       	in	r0, 0x3b	; 59
 51c:	0f 92       	push	r0
 51e:	1b be       	out	0x3b, r1	; 59
 520:	2f 93       	push	r18
 522:	3f 93       	push	r19
 524:	4f 93       	push	r20
 526:	5f 93       	push	r21
 528:	6f 93       	push	r22
 52a:	7f 93       	push	r23
 52c:	8f 93       	push	r24
 52e:	9f 93       	push	r25
 530:	af 93       	push	r26
 532:	bf 93       	push	r27
 534:	ef 93       	push	r30
 536:	ff 93       	push	r31
	TWI_MasterInterruptHandler(&twiMaster);
 538:	83 e0       	ldi	r24, 0x03	; 3
 53a:	90 e2       	ldi	r25, 0x20	; 32
 53c:	a3 d0       	rcall	.+326    	; 0x684 <TWI_MasterInterruptHandler>
 53e:	ff 91       	pop	r31
 540:	ef 91       	pop	r30
 542:	bf 91       	pop	r27
 544:	af 91       	pop	r26
 546:	9f 91       	pop	r25
 548:	8f 91       	pop	r24
 54a:	7f 91       	pop	r23
 54c:	6f 91       	pop	r22
 54e:	5f 91       	pop	r21
 550:	4f 91       	pop	r20
 552:	3f 91       	pop	r19
 554:	2f 91       	pop	r18
 556:	0f 90       	pop	r0
 558:	0b be       	out	0x3b, r0	; 59
 55a:	0f 90       	pop	r0
 55c:	09 be       	out	0x39, r0	; 57
 55e:	0f 90       	pop	r0
 560:	08 be       	out	0x38, r0	; 56
 562:	0f 90       	pop	r0
 564:	0f be       	out	0x3f, r0	; 63
 566:	0f 90       	pop	r0
 568:	1f 90       	pop	r1
 56a:	18 95       	reti

0000056c <TWI_MasterInit>:
 56c:	fc 01       	movw	r30, r24
 56e:	60 83       	st	Z, r22
 570:	71 83       	std	Z+1, r23	; 0x01
 572:	48 63       	ori	r20, 0x38	; 56
 574:	db 01       	movw	r26, r22
 576:	11 96       	adiw	r26, 0x01	; 1
 578:	4c 93       	st	X, r20
 57a:	a0 81       	ld	r26, Z
 57c:	b1 81       	ldd	r27, Z+1	; 0x01
 57e:	15 96       	adiw	r26, 0x05	; 5
 580:	2c 93       	st	X, r18
 582:	01 90       	ld	r0, Z+
 584:	f0 81       	ld	r31, Z
 586:	e0 2d       	mov	r30, r0
 588:	81 e0       	ldi	r24, 0x01	; 1
 58a:	84 83       	std	Z+4, r24	; 0x04
 58c:	08 95       	ret

0000058e <TWI_MasterArbitrationLostBusErrorHandler>:
 58e:	fc 01       	movw	r30, r24
 590:	a0 81       	ld	r26, Z
 592:	b1 81       	ldd	r27, Z+1	; 0x01
 594:	14 96       	adiw	r26, 0x04	; 4
 596:	8c 91       	ld	r24, X
 598:	14 97       	sbiw	r26, 0x04	; 4
 59a:	82 ff       	sbrs	r24, 2
 59c:	03 c0       	rjmp	.+6      	; 0x5a4 <TWI_MasterArbitrationLostBusErrorHandler+0x16>
 59e:	94 e0       	ldi	r25, 0x04	; 4
 5a0:	94 8b       	std	Z+20, r25	; 0x14
 5a2:	02 c0       	rjmp	.+4      	; 0x5a8 <TWI_MasterArbitrationLostBusErrorHandler+0x1a>
 5a4:	93 e0       	ldi	r25, 0x03	; 3
 5a6:	94 8b       	std	Z+20, r25	; 0x14
 5a8:	88 60       	ori	r24, 0x08	; 8
 5aa:	14 96       	adiw	r26, 0x04	; 4
 5ac:	8c 93       	st	X, r24
 5ae:	13 8a       	std	Z+19, r1	; 0x13
 5b0:	08 95       	ret

000005b2 <TWI_MasterTransactionFinished>:
 5b2:	fc 01       	movw	r30, r24
 5b4:	64 8b       	std	Z+20, r22	; 0x14
 5b6:	13 8a       	std	Z+19, r1	; 0x13
 5b8:	08 95       	ret

000005ba <TWI_MasterReadHandler>:
 5ba:	cf 93       	push	r28
 5bc:	df 93       	push	r29
 5be:	ec 01       	movw	r28, r24
 5c0:	8a 89       	ldd	r24, Y+18	; 0x12
 5c2:	84 30       	cpi	r24, 0x04	; 4
 5c4:	98 f4       	brcc	.+38     	; 0x5ec <TWI_MasterReadHandler+0x32>
 5c6:	e0 e4       	ldi	r30, 0x40	; 64
 5c8:	f6 e0       	ldi	r31, 0x06	; 6
 5ca:	80 81       	ld	r24, Z
 5cc:	10 82       	st	Z, r1
 5ce:	a8 81       	ld	r26, Y
 5d0:	b9 81       	ldd	r27, Y+1	; 0x01
 5d2:	17 96       	adiw	r26, 0x07	; 7
 5d4:	9c 91       	ld	r25, X
 5d6:	2a 89       	ldd	r18, Y+18	; 0x12
 5d8:	de 01       	movw	r26, r28
 5da:	a2 0f       	add	r26, r18
 5dc:	b1 1d       	adc	r27, r1
 5de:	1b 96       	adiw	r26, 0x0b	; 11
 5e0:	9c 93       	st	X, r25
 5e2:	9a 89       	ldd	r25, Y+18	; 0x12
 5e4:	9f 5f       	subi	r25, 0xFF	; 255
 5e6:	9a 8b       	std	Y+18, r25	; 0x12
 5e8:	80 83       	st	Z, r24
 5ea:	07 c0       	rjmp	.+14     	; 0x5fa <TWI_MasterReadHandler+0x40>
 5ec:	e8 81       	ld	r30, Y
 5ee:	f9 81       	ldd	r31, Y+1	; 0x01
 5f0:	83 e0       	ldi	r24, 0x03	; 3
 5f2:	83 83       	std	Z+3, r24	; 0x03
 5f4:	62 e0       	ldi	r22, 0x02	; 2
 5f6:	ce 01       	movw	r24, r28
 5f8:	dc df       	rcall	.-72     	; 0x5b2 <TWI_MasterTransactionFinished>
 5fa:	98 89       	ldd	r25, Y+16	; 0x10
 5fc:	8a 89       	ldd	r24, Y+18	; 0x12
 5fe:	89 17       	cp	r24, r25
 600:	28 f4       	brcc	.+10     	; 0x60c <TWI_MasterReadHandler+0x52>
 602:	e8 81       	ld	r30, Y
 604:	f9 81       	ldd	r31, Y+1	; 0x01
 606:	82 e0       	ldi	r24, 0x02	; 2
 608:	83 83       	std	Z+3, r24	; 0x03
 60a:	07 c0       	rjmp	.+14     	; 0x61a <TWI_MasterReadHandler+0x60>
 60c:	e8 81       	ld	r30, Y
 60e:	f9 81       	ldd	r31, Y+1	; 0x01
 610:	87 e0       	ldi	r24, 0x07	; 7
 612:	83 83       	std	Z+3, r24	; 0x03
 614:	61 e0       	ldi	r22, 0x01	; 1
 616:	ce 01       	movw	r24, r28
 618:	cc df       	rcall	.-104    	; 0x5b2 <TWI_MasterTransactionFinished>
 61a:	df 91       	pop	r29
 61c:	cf 91       	pop	r28
 61e:	08 95       	ret

00000620 <TWI_MasterWriteHandler>:
 620:	cf 93       	push	r28
 622:	df 93       	push	r29
 624:	fc 01       	movw	r30, r24
 626:	97 85       	ldd	r25, Z+15	; 0x0f
 628:	20 89       	ldd	r18, Z+16	; 0x10
 62a:	a0 81       	ld	r26, Z
 62c:	b1 81       	ldd	r27, Z+1	; 0x01
 62e:	14 96       	adiw	r26, 0x04	; 4
 630:	8c 91       	ld	r24, X
 632:	14 97       	sbiw	r26, 0x04	; 4
 634:	84 ff       	sbrs	r24, 4
 636:	07 c0       	rjmp	.+14     	; 0x646 <TWI_MasterWriteHandler+0x26>
 638:	83 e0       	ldi	r24, 0x03	; 3
 63a:	13 96       	adiw	r26, 0x03	; 3
 63c:	8c 93       	st	X, r24
 63e:	85 e0       	ldi	r24, 0x05	; 5
 640:	84 8b       	std	Z+20, r24	; 0x14
 642:	13 8a       	std	Z+19, r1	; 0x13
 644:	1c c0       	rjmp	.+56     	; 0x67e <TWI_MasterWriteHandler+0x5e>
 646:	81 89       	ldd	r24, Z+17	; 0x11
 648:	89 17       	cp	r24, r25
 64a:	58 f4       	brcc	.+22     	; 0x662 <TWI_MasterWriteHandler+0x42>
 64c:	81 89       	ldd	r24, Z+17	; 0x11
 64e:	ef 01       	movw	r28, r30
 650:	c8 0f       	add	r28, r24
 652:	d1 1d       	adc	r29, r1
 654:	8b 81       	ldd	r24, Y+3	; 0x03
 656:	17 96       	adiw	r26, 0x07	; 7
 658:	8c 93       	st	X, r24
 65a:	81 89       	ldd	r24, Z+17	; 0x11
 65c:	8f 5f       	subi	r24, 0xFF	; 255
 65e:	81 8b       	std	Z+17, r24	; 0x11
 660:	0e c0       	rjmp	.+28     	; 0x67e <TWI_MasterWriteHandler+0x5e>
 662:	82 89       	ldd	r24, Z+18	; 0x12
 664:	82 17       	cp	r24, r18
 666:	28 f4       	brcc	.+10     	; 0x672 <TWI_MasterWriteHandler+0x52>
 668:	82 81       	ldd	r24, Z+2	; 0x02
 66a:	81 60       	ori	r24, 0x01	; 1
 66c:	16 96       	adiw	r26, 0x06	; 6
 66e:	8c 93       	st	X, r24
 670:	06 c0       	rjmp	.+12     	; 0x67e <TWI_MasterWriteHandler+0x5e>
 672:	83 e0       	ldi	r24, 0x03	; 3
 674:	13 96       	adiw	r26, 0x03	; 3
 676:	8c 93       	st	X, r24
 678:	61 e0       	ldi	r22, 0x01	; 1
 67a:	cf 01       	movw	r24, r30
 67c:	9a df       	rcall	.-204    	; 0x5b2 <TWI_MasterTransactionFinished>
 67e:	df 91       	pop	r29
 680:	cf 91       	pop	r28
 682:	08 95       	ret

00000684 <TWI_MasterInterruptHandler>:
 684:	dc 01       	movw	r26, r24
 686:	ed 91       	ld	r30, X+
 688:	fc 91       	ld	r31, X
 68a:	24 81       	ldd	r18, Z+4	; 0x04
 68c:	32 2f       	mov	r19, r18
 68e:	3c 70       	andi	r19, 0x0C	; 12
 690:	09 f0       	breq	.+2      	; 0x694 <TWI_MasterInterruptHandler+0x10>
 692:	7d cf       	rjmp	.-262    	; 0x58e <TWI_MasterArbitrationLostBusErrorHandler>
 694:	26 ff       	sbrs	r18, 6
 696:	01 c0       	rjmp	.+2      	; 0x69a <TWI_MasterInterruptHandler+0x16>
 698:	c3 cf       	rjmp	.-122    	; 0x620 <TWI_MasterWriteHandler>
 69a:	22 23       	and	r18, r18
 69c:	0c f4       	brge	.+2      	; 0x6a0 <TWI_MasterInterruptHandler+0x1c>
 69e:	8d cf       	rjmp	.-230    	; 0x5ba <TWI_MasterReadHandler>
 6a0:	66 e0       	ldi	r22, 0x06	; 6
 6a2:	87 cf       	rjmp	.-242    	; 0x5b2 <TWI_MasterTransactionFinished>

000006a4 <_exit>:
 6a4:	f8 94       	cli

000006a6 <__stop_program>:
 6a6:	ff cf       	rjmp	.-2      	; 0x6a6 <__stop_program>
